Certificate:
    Data:
        Version: 3 (0x2)
        Serial Number: 2 (0x2)
        Signature Algorithm: md5WithRSAEncryption
        Issuer: C=ES, CN=Rlink CA, O=kernellabs/emailAddress=javiroman@kernel-labs.org
        Validity
            Not Before: Aug 14 10:16:05 2009 GMT
            Not After : Aug 13 10:16:05 2014 GMT
        Subject: C=ES, CN=IceGrid Node cliente, O=kernellabs
        Subject Public Key Info:
            Public Key Algorithm: rsaEncryption
            RSA Public Key: (1024 bit)
                Modulus (1024 bit):
                    00:cd:98:ce:a0:90:06:5f:6f:40:48:e3:f4:0b:a7:
                    04:56:16:9d:41:3b:a9:ea:18:81:01:e9:f0:70:73:
                    37:08:2a:0a:a4:b2:2c:49:75:e5:59:0b:b6:b5:bf:
                    af:c3:1b:39:f5:33:0e:0e:fb:cc:bf:d9:91:8e:4f:
                    73:c5:27:80:92:b2:f6:1c:4a:80:b5:b5:0f:44:da:
                    01:ee:dc:6e:54:7d:02:6d:80:12:4c:af:fb:16:e7:
                    f9:ea:c0:9b:a6:c7:a8:9c:c1:74:5c:39:1d:87:90:
                    af:1b:50:f3:22:1f:b8:06:df:a0:3b:ab:e5:14:51:
                    00:6e:ce:43:8a:2e:d8:d2:af
                Exponent: 65537 (0x10001)
        X509v3 extensions:
            X509v3 Basic Constraints: 
                CA:FALSE
            X509v3 Subject Key Identifier: 
                E8:2F:50:8B:90:DE:39:72:02:54:3E:6F:D8:63:75:02:CF:1E:AB:C8
            X509v3 Authority Key Identifier: 
                keyid:60:28:6C:81:29:09:5F:A3:E9:C6:7B:B2:AE:60:58:70:39:EE:79:6E
                DirName:/C=ES/CN=Rlink CA/O=kernel-labs/emailAddress=javiroman@kernel-labs.org
                serial:A9:A4:A4:12:7D:AF:85:EF

    Signature Algorithm: md5WithRSAEncryption
        5f:0a:38:ab:05:72:16:ee:ba:d4:33:27:f6:b9:2a:ca:73:4d:
        16:85:6a:3b:ae:41:48:91:33:4b:08:19:9c:3d:e0:17:97:22:
        f6:64:07:9b:0e:dc:e4:08:be:ab:ea:e8:40:8d:e4:c6:87:d1:
        83:22:3c:f3:17:db:f0:6a:42:a0:df:65:46:9f:22:04:68:f6:
        39:3b:41:3b:f6:59:d9:5c:53:a5:47:a7:e3:e4:73:50:cc:6c:
        f6:28:68:a7:1f:c4:1f:be:09:3b:f0:7b:7a:32:79:59:00:65:
        77:65:90:a1:13:c9:fc:bd:64:43:37:99:93:a4:c2:9f:ce:95:
        49:ff:ff:41:8d:d8:0f:7b:6b:bb:ab:9d:8c:71:3f:e2:f0:5b:
        25:b2:31:d9:27:25:13:7c:7c:fd:74:a6:f1:f4:78:0a:55:e1:
        f6:f3:6c:57:fd:44:e4:b8:4d:aa:dd:b4:0e:db:d3:11:67:ff:
        c1:4a:f1:07:8c:1e:4a:01:a1:23:43:79:b3:c0:f8:aa:6c:8c:
        d0:d0:3b:23:68:a5:0b:56:aa:38:3f:37:27:4f:d7:02:9c:08:
        e4:2a:3e:56:ed:a3:c5:71:f2:03:eb:d3:bd:6e:85:4b:11:f0:
        d9:85:84:f6:b9:14:77:0c:43:4d:ab:a9:7a:59:ec:a5:4b:6d:
        17:6e:e4:a5
-----BEGIN CERTIFICATE-----
MIIDYTCCAkmgAwIBAgIBAjANBgkqhkiG9w0BAQQFADBlMQswCQYDVQQGEwJFUzER
MA8GA1UEAxMIUmxpbmsgQ0ExDzANBgNVBAoTBldpbmNvcjEyMDAGCSqGSIb3DQEJ
ARYjamF2aWVyLnJvbWFuLmV4dEB3aW5jb3Itbml4ZG9yZi5jb20wHhcNMDkwODE0
MTAxNjA1WhcNMTQwODEzMTAxNjA1WjA9MQswCQYDVQQGEwJFUzEdMBsGA1UEAxMU
SWNlR3JpZCBOb2RlIGNsaWVudGUxDzANBgNVBAoTBldpbmNvcjCBnzANBgkqhkiG
9w0BAQEFAAOBjQAwgYkCgYEAzZjOoJAGX29ASOP0C6cEVhadQTup6hiBAenwcHM3
CCoKpLIsSXXlWQu2tb+vwxs59TMODvvMv9mRjk9zxSeAkrL2HEqAtbUPRNoB7txu
VH0CbYASTK/7Fuf56sCbpseonMF0XDkdh5CvG1DzIh+4Bt+gO6vlFFEAbs5Dii7Y
0q8CAwEAAaOBxzCBxDAJBgNVHRMEAjAAMB0GA1UdDgQWBBToL1CLkN45cgJUPm/Y
Y3UCzx6ryDCBlwYDVR0jBIGPMIGMgBRgKGyBKQlfo+nGe7KuYFhwOe55bqFppGcw
ZTELMAkGA1UEBhMCRVMxETAPBgNVBAMTCFJsaW5rIENBMQ8wDQYDVQQKEwZXaW5j
b3IxMjAwBgkqhkiG9w0BCQEWI2phdmllci5yb21hbi5leHRAd2luY29yLW5peGRv
cmYuY29tggkAqaSkEn2vhe8wDQYJKoZIhvcNAQEEBQADggEBAF8KOKsFchbuutQz
J/a5KspzTRaFajuuQUiRM0sIGZw94BeXIvZkB5sO3OQIvqvq6ECN5MaH0YMiPPMX
2/BqQqDfZUafIgRo9jk7QTv2WdlcU6VHp+Pkc1DMbPYoaKcfxB++CTvwe3oyeVkA
ZXdlkKETyfy9ZEM3mZOkwp/OlUn//0GN2A97a7urnYxxP+LwWyWyMdknJRN8fP10
pvH0eApV4fbzbFf9ROS4TardtA7b0xFn/8FK8QeMHkoBoSNDebPA+KpsjNDQOyNo
pQtWqjg/NydP1wKcCOQqPlbto8Vx8gPr071uhUsR8NmFhPa5FHcMQ02rqXpZ7KVL
bRdu5KU=
-----END CERTIFICATE-----
