Certificate:
    Data:
        Version: 3 (0x2)
        Serial Number: 1 (0x1)
        Signature Algorithm: md5WithRSAEncryption
        Issuer: C=ES, CN=Rlink CA, O=kernel-labs/emailAddress=javiroman@kernel-labs.org
        Validity
            Not Before: Aug 14 07:15:11 2009 GMT
            Not After : Aug 13 07:15:11 2014 GMT
        Subject: C=ES, CN=Ice Server caposerver, O=kernel-labs
        Subject Public Key Info:
            Public Key Algorithm: rsaEncryption
            RSA Public Key: (1024 bit)
                Modulus (1024 bit):
                    00:a4:b7:56:f3:21:35:78:60:f7:9e:af:fb:8b:5a:
                    db:b7:4c:fc:10:b5:3b:1b:15:9e:59:13:ec:5e:ac:
                    5f:36:c3:c2:0a:e8:39:54:f5:14:58:e2:00:7b:7b:
                    30:47:92:e9:a4:4c:b6:b4:f6:96:25:51:5e:14:a2:
                    9e:1c:c2:ab:73:39:21:f7:1b:09:9a:a8:62:6d:29:
                    d7:7f:f9:0c:27:a1:19:b3:d9:af:9d:bc:3e:66:5b:
                    b4:c5:37:d0:94:7a:34:93:46:9a:2d:ff:9d:b4:db:
                    ba:6e:50:6f:f7:b9:5a:92:4b:d8:6b:2a:d0:7b:1a:
                    f1:f9:fc:8d:03:99:7f:b0:45
                Exponent: 65537 (0x10001)
        X509v3 extensions:
            X509v3 Basic Constraints: 
                CA:FALSE
            X509v3 Subject Key Identifier: 
                00:EC:8B:55:E6:E3:84:B4:C2:14:FC:8A:8A:A7:EC:58:E5:B6:94:DF
            X509v3 Authority Key Identifier: 
                keyid:60:28:6C:81:29:09:5F:A3:E9:C6:7B:B2:AE:60:58:70:39:EE:79:6E
                DirName:/C=ES/CN=Rlink CA/O=kernel-labs/emailAddress=javiroman@kernel-labs.org
                serial:A9:A4:A4:12:7D:AF:85:EF

    Signature Algorithm: md5WithRSAEncryption
        6f:9a:0a:85:71:82:11:a9:38:55:d6:3a:5d:28:f3:72:a0:02:
        41:c2:d4:45:17:44:6a:c4:06:3c:df:d2:2d:e4:ca:bb:ea:25:
        9b:c2:08:a8:fc:b8:83:9f:a8:0f:f7:46:fa:2d:02:43:e4:43:
        2f:ae:3f:ff:f5:21:7f:de:79:b0:2f:9b:02:78:b0:de:c7:96:
        7b:70:49:d2:34:9b:ef:5b:7d:14:3f:3c:9d:7e:47:ce:0f:54:
        87:d3:c0:e6:cd:5a:9e:0a:1a:6b:f8:38:ca:76:ee:32:0f:0c:
        c4:c9:14:b5:75:c4:0a:87:36:96:38:d1:d7:89:fa:94:a4:92:
        e4:38:d1:84:ec:61:f7:25:b5:d2:ed:d0:5a:04:dc:3d:d5:b5:
        f2:ab:8a:e1:00:dc:c8:0e:c9:2c:87:1f:de:0a:12:2d:5c:4a:
        ed:e3:58:56:c6:70:90:bc:0e:9b:9a:15:99:82:de:b8:d8:35:
        6d:d2:59:f8:4b:26:08:4e:83:72:75:eb:9f:cd:c5:6b:61:32:
        b0:e1:04:90:9a:ac:ad:a7:4d:a2:58:b4:dd:cb:27:99:7f:d4:
        d9:7f:78:77:9f:aa:20:ee:3b:d7:24:3d:45:e5:a0:36:79:27:
        a3:f0:58:b8:ca:89:26:35:e3:ca:7d:00:58:a4:dc:85:e8:50:
        47:03:b9:01
-----BEGIN CERTIFICATE-----
MIIDZTCCAk2gAwIBAgIBATANBgkqhkiG9w0BAQQFADBlMQswCQYDVQQGEwJFUzER
MA8GA1UEAxMIUmxpbmsgQ0ExDzANBgNVBAoTBldpbmNvcjEyMDAGCSqGSIb3DQEJ
ARYjamF2aWVyLnJvbWFuLmV4dEB3aW5jb3Itbml4ZG9yZi5jb20wHhcNMDkwODE0
MDcxNTExWhcNMTQwODEzMDcxNTExWjBBMQswCQYDVQQGEwJFUzEhMB8GA1UEAxMY
SWNlIFNlcnZlciBjYXByYWJvc2VydmVyMQ8wDQYDVQQKEwZXaW5jb3IwgZ8wDQYJ
KoZIhvcNAQEBBQADgY0AMIGJAoGBAKS3VvMhNXhg956v+4ta27dM/BC1OxsVnlkT
7F6sXzbDwgroOVT1FFjiAHt7MEeS6aRMtrT2liVRXhSinhzCq3M5IfcbCZqoYm0p
13/5DCehGbPZr528PmZbtMU30JR6NJNGmi3/nbTbum5Qb/e5WpJL2Gsq0Hsa8fn8
jQOZf7BFAgMBAAGjgccwgcQwCQYDVR0TBAIwADAdBgNVHQ4EFgQUAOyLVebjhLTC
FPyKiqfsWOW2lN8wgZcGA1UdIwSBjzCBjIAUYChsgSkJX6PpxnuyrmBYcDnueW6h
aaRnMGUxCzAJBgNVBAYTAkVTMREwDwYDVQQDEwhSbGluayBDQTEPMA0GA1UEChMG
V2luY29yMTIwMAYJKoZIhvcNAQkBFiNqYXZpZXIucm9tYW4uZXh0QHdpbmNvci1u
aXhkb3JmLmNvbYIJAKmkpBJ9r4XvMA0GCSqGSIb3DQEBBAUAA4IBAQBvmgqFcYIR
qThV1jpdKPNyoAJBwtRFF0RqxAY839It5Mq76iWbwgio/LiDn6gP90b6LQJD5EMv
rj//9SF/3nmwL5sCeLDex5Z7cEnSNJvvW30UPzydfkfOD1SH08DmzVqeChpr+DjK
du4yDwzEyRS1dcQKhzaWONHXifqUpJLkONGE7GH3JbXS7dBaBNw91bXyq4rhANzI
Dskshx/eChItXErt41hWxnCQvA6bmhWZgt642DVt0ln4SyYIToNydeufzcVrYTKw
4QSQmqytp02iWLTdyyeZf9TZf3h3n6og7jvXJD1F5aA2eSej8Fi4yokmNePKfQBY
pNyF6FBHA7kB
-----END CERTIFICATE-----
